; Function Attrs: mustprogress nofree nounwind willreturn memory(write, argmem: none, inaccessiblemem: readwrite) uwtable
define noalias noundef ptr @Sat_MmFlexStart() local_unnamed_addr #0 {
  %calloc = tail call dereferenceable_or_null(56) ptr @calloc(i64 1, i64 56)
  %1 = getelementptr inbounds nuw i8, ptr %calloc, i64 24
  store i32 65536, ptr %1, align 8, !tbaa !27
  %2 = getelementptr inbounds nuw i8, ptr %calloc, i64 28
  store i32 64, ptr %2, align 4, !tbaa !29
  %3 = tail call noalias dereferenceable_or_null(512) ptr @malloc(i64 noundef 512) #14
  %4 = getelementptr inbounds nuw i8, ptr %calloc, i64 40
  store ptr %3, ptr %4, align 8, !tbaa !30
  ret ptr %calloc
}